; ModuleID = 'source-C-CXX/41/820.cpp'
source_filename = "source-C-CXX/41/820.cpp"
target datalayout = "e-m:e-p270:32:32-p271:32:32-p272:64:64-i64:64-f80:128-n8:16:32:64-S128"
target triple = "x86_64-pc-linux-gnu"

%"class.std::ios_base::Init" = type { i8 }
%"class.std::basic_istream" = type { i32 (...)**, i64, %"class.std::basic_ios" }
%"class.std::basic_ios" = type { %"class.std::ios_base", %"class.std::basic_ostream"*, i8, i8, %"class.std::basic_streambuf"*, %"class.std::ctype"*, %"class.std::num_put"*, %"class.std::num_get"* }
%"class.std::ios_base" = type { i32 (...)**, i64, i64, i32, i32, i32, %"struct.std::ios_base::_Callback_list"*, %"struct.std::ios_base::_Words", [8 x %"struct.std::ios_base::_Words"], i32, %"struct.std::ios_base::_Words"*, %"class.std::locale" }
%"struct.std::ios_base::_Callback_list" = type { %"struct.std::ios_base::_Callback_list"*, void (i32, %"class.std::ios_base"*, i32)*, i32, i32 }
%"struct.std::ios_base::_Words" = type { i8*, i64 }
%"class.std::locale" = type { %"class.std::locale::_Impl"* }
%"class.std::locale::_Impl" = type { i32, %"class.std::locale::facet"**, i64, %"class.std::locale::facet"**, i8** }
%"class.std::locale::facet" = type <{ i32 (...)**, i32, [4 x i8] }>
%"class.std::basic_ostream" = type { i32 (...)**, %"class.std::basic_ios" }
%"class.std::basic_streambuf" = type { i32 (...)**, i8*, i8*, i8*, i8*, i8*, i8*, %"class.std::locale" }
%"class.std::ctype" = type <{ %"class.std::locale::facet.base", [4 x i8], %struct.__locale_struct*, i8, [7 x i8], i32*, i32*, i16*, i8, [256 x i8], [256 x i8], i8, [6 x i8] }>
%"class.std::locale::facet.base" = type <{ i32 (...)**, i32 }>
%struct.__locale_struct = type { [13 x %struct.__locale_data*], i16*, i32*, i32*, [13 x i8*] }
%struct.__locale_data = type opaque
%"class.std::num_put" = type { %"class.std::locale::facet.base", [4 x i8] }
%"class.std::num_get" = type { %"class.std::locale::facet.base", [4 x i8] }

@_ZStL8__ioinit = internal global %"class.std::ios_base::Init" zeroinitializer, align 1
@__dso_handle = external hidden global i8
@_ZSt3cin = external global %"class.std::basic_istream", align 8
@_ZSt4cout = external global %"class.std::basic_ostream", align 8
@.str = private unnamed_addr constant [2 x i8] c" \00", align 1
@llvm.global_ctors = appending global [1 x { i32, void ()*, i8* }] [{ i32, void ()*, i8* } { i32 65535, void ()* @_GLOBAL__sub_I_820.cpp, i8* null }]

declare void @_ZNSt8ios_base4InitC1Ev(%"class.std::ios_base::Init"* nonnull align 1 dereferenceable(1)) unnamed_addr #0

; Function Attrs: nounwind
declare void @_ZNSt8ios_base4InitD1Ev(%"class.std::ios_base::Init"* nonnull align 1 dereferenceable(1)) unnamed_addr #1

; Function Attrs: nofree nounwind
declare i32 @__cxa_atexit(void (i8*)*, i8*, i8*) local_unnamed_addr #2

; Function Attrs: mustprogress norecurse sspstrong uwtable
define dso_local i32 @main() local_unnamed_addr #3 {
  %1 = alloca i32, align 4
  %2 = alloca i32, align 4
  %3 = alloca [100000 x i32], align 16
  %4 = bitcast i32* %1 to i8*
  call void @llvm.lifetime.start.p0i8(i64 4, i8* nonnull %4) #7
  %5 = bitcast i32* %2 to i8*
  call void @llvm.lifetime.start.p0i8(i64 4, i8* nonnull %5) #7
  %6 = bitcast [100000 x i32]* %3 to i8*
  call void @llvm.lifetime.start.p0i8(i64 400000, i8* nonnull %6) #7
  call void @llvm.memset.p0i8.i64(i8* noundef nonnull align 16 dereferenceable(400000) %6, i8 0, i64 400000, i1 false)
  %7 = call nonnull align 8 dereferenceable(16) %"class.std::basic_istream"* @_ZNSirsERi(%"class.std::basic_istream"* nonnull align 8 dereferenceable(16) @_ZSt3cin, i32* nonnull align 4 dereferenceable(4) %2)
  %8 = load i32, i32* %2, align 4, !tbaa !5
  %9 = icmp sgt i32 %8, 0
  br i1 %9, label %10, label %18

10:                                               ; preds = %0, %10
  %11 = phi i64 [ %14, %10 ], [ 0, %0 ]
  %12 = getelementptr inbounds [100000 x i32], [100000 x i32]* %3, i64 0, i64 %11
  %13 = call nonnull align 8 dereferenceable(16) %"class.std::basic_istream"* @_ZNSirsERi(%"class.std::basic_istream"* nonnull align 8 dereferenceable(16) @_ZSt3cin, i32* nonnull align 4 dereferenceable(4) %12)
  %14 = add nuw nsw i64 %11, 1
  %15 = load i32, i32* %2, align 4, !tbaa !5
  %16 = sext i32 %15 to i64
  %17 = icmp slt i64 %14, %16
  br i1 %17, label %10, label %18, !llvm.loop !9

18:                                               ; preds = %10, %0
  %19 = call nonnull align 8 dereferenceable(16) %"class.std::basic_istream"* @_ZNSirsERi(%"class.std::basic_istream"* nonnull align 8 dereferenceable(16) @_ZSt3cin, i32* nonnull align 4 dereferenceable(4) %1)
  %20 = load i32, i32* %1, align 4
  %21 = load i32, i32* %2, align 4, !tbaa !5
  %22 = icmp sgt i32 %21, 0
  br i1 %22, label %25, label %125

23:                                               ; preds = %110
  %24 = icmp slt i32 %111, 2
  br i1 %24, label %125, label %114

25:                                               ; preds = %18, %110
  %26 = phi i32 [ %111, %110 ], [ %21, %18 ]
  %27 = phi i32 [ %112, %110 ], [ 0, %18 ]
  %28 = sext i32 %27 to i64
  %29 = getelementptr inbounds [100000 x i32], [100000 x i32]* %3, i64 0, i64 %28
  %30 = load i32, i32* %29, align 4, !tbaa !5
  %31 = icmp eq i32 %30, %20
  br i1 %31, label %32, label %108

32:                                               ; preds = %25
  %33 = icmp slt i32 %27, %26
  br i1 %33, label %34, label %106

34:                                               ; preds = %32
  %35 = sext i32 %26 to i64
  %36 = sub nsw i64 %35, %28
  %37 = icmp ult i64 %36, 8
  br i1 %37, label %97, label %38

38:                                               ; preds = %34
  %39 = and i64 %36, -8
  %40 = add nsw i64 %39, %28
  %41 = add nsw i64 %39, -8
  %42 = lshr exact i64 %41, 3
  %43 = add nuw nsw i64 %42, 1
  %44 = and i64 %43, 1
  %45 = icmp eq i64 %41, 0
  br i1 %45, label %79, label %46

46:                                               ; preds = %38
  %47 = and i64 %43, 4611686018427387902
  br label %48

48:                                               ; preds = %48, %46
  %49 = phi i64 [ 0, %46 ], [ %76, %48 ]
  %50 = phi i64 [ %47, %46 ], [ %77, %48 ]
  %51 = add i64 %49, %28
  %52 = add nsw i64 %51, 1
  %53 = getelementptr inbounds [100000 x i32], [100000 x i32]* %3, i64 0, i64 %52
  %54 = bitcast i32* %53 to <4 x i32>*
  %55 = load <4 x i32>, <4 x i32>* %54, align 4, !tbaa !5
  %56 = getelementptr inbounds i32, i32* %53, i64 4
  %57 = bitcast i32* %56 to <4 x i32>*
  %58 = load <4 x i32>, <4 x i32>* %57, align 4, !tbaa !5
  %59 = getelementptr inbounds [100000 x i32], [100000 x i32]* %3, i64 0, i64 %51
  %60 = bitcast i32* %59 to <4 x i32>*
  store <4 x i32> %55, <4 x i32>* %60, align 4, !tbaa !5
  %61 = getelementptr inbounds i32, i32* %59, i64 4
  %62 = bitcast i32* %61 to <4 x i32>*
  store <4 x i32> %58, <4 x i32>* %62, align 4, !tbaa !5
  %63 = or i64 %49, 8
  %64 = add i64 %63, %28
  %65 = add nsw i64 %64, 1
  %66 = getelementptr inbounds [100000 x i32], [100000 x i32]* %3, i64 0, i64 %65
  %67 = bitcast i32* %66 to <4 x i32>*
  %68 = load <4 x i32>, <4 x i32>* %67, align 4, !tbaa !5
  %69 = getelementptr inbounds i32, i32* %66, i64 4
  %70 = bitcast i32* %69 to <4 x i32>*
  %71 = load <4 x i32>, <4 x i32>* %70, align 4, !tbaa !5
  %72 = getelementptr inbounds [100000 x i32], [100000 x i32]* %3, i64 0, i64 %64
  %73 = bitcast i32* %72 to <4 x i32>*
  store <4 x i32> %68, <4 x i32>* %73, align 4, !tbaa !5
  %74 = getelementptr inbounds i32, i32* %72, i64 4
  %75 = bitcast i32* %74 to <4 x i32>*
  store <4 x i32> %71, <4 x i32>* %75, align 4, !tbaa !5
  %76 = add nuw i64 %49, 16
  %77 = add i64 %50, -2
  %78 = icmp eq i64 %77, 0
  br i1 %78, label %79, label %48, !llvm.loop !11

79:                                               ; preds = %48, %38
  %80 = phi i64 [ 0, %38 ], [ %76, %48 ]
  %81 = icmp eq i64 %44, 0
  br i1 %81, label %95, label %82

82:                                               ; preds = %79
  %83 = add i64 %80, %28
  %84 = add nsw i64 %83, 1
  %85 = getelementptr inbounds [100000 x i32], [100000 x i32]* %3, i64 0, i64 %84
  %86 = bitcast i32* %85 to <4 x i32>*
  %87 = load <4 x i32>, <4 x i32>* %86, align 4, !tbaa !5
  %88 = getelementptr inbounds i32, i32* %85, i64 4
  %89 = bitcast i32* %88 to <4 x i32>*
  %90 = load <4 x i32>, <4 x i32>* %89, align 4, !tbaa !5
  %91 = getelementptr inbounds [100000 x i32], [100000 x i32]* %3, i64 0, i64 %83
  %92 = bitcast i32* %91 to <4 x i32>*
  store <4 x i32> %87, <4 x i32>* %92, align 4, !tbaa !5
  %93 = getelementptr inbounds i32, i32* %91, i64 4
  %94 = bitcast i32* %93 to <4 x i32>*
  store <4 x i32> %90, <4 x i32>* %94, align 4, !tbaa !5
  br label %95

95:                                               ; preds = %79, %82
  %96 = icmp eq i64 %36, %39
  br i1 %96, label %106, label %97

97:                                               ; preds = %34, %95
  %98 = phi i64 [ %28, %34 ], [ %40, %95 ]
  br label %99

99:                                               ; preds = %97, %99
  %100 = phi i64 [ %101, %99 ], [ %98, %97 ]
  %101 = add nsw i64 %100, 1
  %102 = getelementptr inbounds [100000 x i32], [100000 x i32]* %3, i64 0, i64 %101
  %103 = load i32, i32* %102, align 4, !tbaa !5
  %104 = getelementptr inbounds [100000 x i32], [100000 x i32]* %3, i64 0, i64 %100
  store i32 %103, i32* %104, align 4, !tbaa !5
  %105 = icmp eq i64 %101, %35
  br i1 %105, label %106, label %99, !llvm.loop !13

106:                                              ; preds = %99, %95, %32
  %107 = add nsw i32 %26, -1
  store i32 %107, i32* %2, align 4, !tbaa !5
  br label %110

108:                                              ; preds = %25
  %109 = add nsw i32 %27, 1
  br label %110

110:                                              ; preds = %108, %106
  %111 = phi i32 [ %107, %106 ], [ %26, %108 ]
  %112 = phi i32 [ %27, %106 ], [ %109, %108 ]
  %113 = icmp slt i32 %112, %111
  br i1 %113, label %25, label %23, !llvm.loop !15

114:                                              ; preds = %23, %114
  %115 = phi i64 [ %120, %114 ], [ 0, %23 ]
  %116 = getelementptr inbounds [100000 x i32], [100000 x i32]* %3, i64 0, i64 %115
  %117 = load i32, i32* %116, align 4, !tbaa !5
  %118 = call nonnull align 8 dereferenceable(8) %"class.std::basic_ostream"* @_ZNSolsEi(%"class.std::basic_ostream"* nonnull align 8 dereferenceable(8) @_ZSt4cout, i32 %117)
  %119 = call nonnull align 8 dereferenceable(8) %"class.std::basic_ostream"* @_ZSt16__ostream_insertIcSt11char_traitsIcEERSt13basic_ostreamIT_T0_ES6_PKS3_l(%"class.std::basic_ostream"* nonnull align 8 dereferenceable(8) %118, i8* nonnull getelementptr inbounds ([2 x i8], [2 x i8]* @.str, i64 0, i64 0), i64 1)
  %120 = add nuw nsw i64 %115, 1
  %121 = load i32, i32* %2, align 4, !tbaa !5
  %122 = add nsw i32 %121, -2
  %123 = sext i32 %122 to i64
  %124 = icmp slt i64 %115, %123
  br i1 %124, label %114, label %125, !llvm.loop !16

125:                                              ; preds = %114, %18, %23
  %126 = phi i32 [ %111, %23 ], [ %21, %18 ], [ %121, %114 ]
  %127 = add nsw i32 %126, -1
  %128 = sext i32 %127 to i64
  %129 = getelementptr inbounds [100000 x i32], [100000 x i32]* %3, i64 0, i64 %128
  %130 = load i32, i32* %129, align 4, !tbaa !5
  %131 = call nonnull align 8 dereferenceable(8) %"class.std::basic_ostream"* @_ZNSolsEi(%"class.std::basic_ostream"* nonnull align 8 dereferenceable(8) @_ZSt4cout, i32 %130)
  call void @llvm.lifetime.end.p0i8(i64 400000, i8* nonnull %6) #7
  call void @llvm.lifetime.end.p0i8(i64 4, i8* nonnull %5) #7
  call void @llvm.lifetime.end.p0i8(i64 4, i8* nonnull %4) #7
  ret i32 0
}

; Function Attrs: argmemonly mustprogress nofree nosync nounwind willreturn
declare void @llvm.lifetime.start.p0i8(i64 immarg, i8* nocapture) #4

; Function Attrs: argmemonly mustprogress nofree nounwind willreturn writeonly
declare void @llvm.memset.p0i8.i64(i8* nocapture writeonly, i8, i64, i1 immarg) #5

declare nonnull align 8 dereferenceable(16) %"class.std::basic_istream"* @_ZNSirsERi(%"class.std::basic_istream"* nonnull align 8 dereferenceable(16), i32* nonnull align 4 dereferenceable(4)) local_unnamed_addr #0

declare nonnull align 8 dereferenceable(8) %"class.std::basic_ostream"* @_ZNSolsEi(%"class.std::basic_ostream"* nonnull align 8 dereferenceable(8), i32) local_unnamed_addr #0

; Function Attrs: argmemonly mustprogress nofree nosync nounwind willreturn
declare void @llvm.lifetime.end.p0i8(i64 immarg, i8* nocapture) #4

declare nonnull align 8 dereferenceable(8) %"class.std::basic_ostream"* @_ZSt16__ostream_insertIcSt11char_traitsIcEERSt13basic_ostreamIT_T0_ES6_PKS3_l(%"class.std::basic_ostream"* nonnull align 8 dereferenceable(8), i8*, i64) local_unnamed_addr #0

; Function Attrs: sspstrong uwtable
define internal void @_GLOBAL__sub_I_820.cpp() #6 section ".text.startup" {
  tail call void @_ZNSt8ios_base4InitC1Ev(%"class.std::ios_base::Init"* nonnull align 1 dereferenceable(1) @_ZStL8__ioinit)
  %1 = tail call i32 @__cxa_atexit(void (i8*)* bitcast (void (%"class.std::ios_base::Init"*)* @_ZNSt8ios_base4InitD1Ev to void (i8*)*), i8* getelementptr inbounds (%"class.std::ios_base::Init", %"class.std::ios_base::Init"* @_ZStL8__ioinit, i64 0, i32 0), i8* nonnull @__dso_handle) #7
  ret void
}


!llvm.module.flags = !{!0, !1, !2, !3}
!llvm.ident = !{!4}

!0 = !{i32 1, !"wchar_size", i32 4}
!1 = !{i32 7, !"PIC Level", i32 2}
!2 = !{i32 7, !"PIE Level", i32 2}
!3 = !{i32 7, !"uwtable", i32 1}
!4 = !{!"clang version 13.0.0"}
!5 = !{!6, !6, i64 0}
!6 = !{!"int", !7, i64 0}
!7 = !{!"omnipotent char", !8, i64 0}
!8 = !{!"Simple C++ TBAA"}
!9 = distinct !{!9, !10}
!10 = !{!"llvm.loop.mustprogress"}
!11 = distinct !{!11, !10, !12}
!12 = !{!"llvm.loop.isvectorized", i32 1}
!13 = distinct !{!13, !10, !14, !12}
!14 = !{!"llvm.loop.unroll.runtime.disable"}
!15 = distinct !{!15, !10}
!16 = distinct !{!16, !10}
